target datalayout = "e-m:e-p270:32:32-p271:32:32-p272:64:64-i64:64-i128:128-f80:128-n8:16:32:64-S128"
target triple = "x86_64-pc-linux-gnu"

%struct.h5tools_context_t = type { i64, i64, i32, i32, [32 x i64], [32 x i64], i32, i64, i32, i64, i32, i32, [32 x i64], [32 x i64], i64, ptr, ptr, i32, i32 }
%struct.h5tool_format_t = type { i8, ptr, ptr, ptr, ptr, ptr, ptr, ptr, ptr, ptr, ptr, ptr, ptr, ptr, ptr, ptr, ptr, ptr, i32, i32, i32, ptr, ptr, ptr, i32, ptr, ptr, ptr, ptr, ptr, ptr, ptr, ptr, ptr, ptr, ptr, ptr, ptr, ptr, ptr, ptr, i32, i64, ptr, ptr, ptr, ptr, ptr, i32, ptr, i32, i32, ptr, i32, ptr, ptr, ptr, ptr, i32, i32 }

@.str = private unnamed_addr constant [3 x i8] c"%s\00", align 1
@.str.17 = private unnamed_addr constant [1 x i8] zeroinitializer, align 1

; Function Attrs: nounwind uwtable
define void @h5tools_str_indent(ptr noundef %0, ptr noundef %1, ptr noundef %2) #0 {
  %4 = alloca ptr, align 8
  %5 = alloca ptr, align 8
  %6 = alloca ptr, align 8
  %7 = alloca i32, align 4
  %8 = alloca i32, align 4
  store ptr %0, ptr %4, align 8, !tbaa !3
  store ptr %1, ptr %5, align 8, !tbaa !19
  store ptr %2, ptr %6, align 8, !tbaa !21
  call void @llvm.lifetime.start.p0(i64 4, ptr %7) #12
  call void @llvm.lifetime.start.p0(i64 4, ptr %8) #12
  store i32 0, ptr %8, align 4, !tbaa !15
  %9 = load ptr, ptr %6, align 8, !tbaa !21
  %10 = getelementptr inbounds nuw %struct.h5tools_context_t, ptr %9, i32 0, i32 10
  %11 = load i32, ptr %10, align 8, !tbaa !43
  %12 = icmp ugt i32 %11, 0
  br i1 %12, label %13, label %17

13:                                               ; preds = %3
  %14 = load ptr, ptr %6, align 8, !tbaa !21
  %15 = getelementptr inbounds nuw %struct.h5tools_context_t, ptr %14, i32 0, i32 10
  %16 = load i32, ptr %15, align 8, !tbaa !43
  store i32 %16, ptr %8, align 4, !tbaa !15
  br label %21

17:                                               ; preds = %3
  %18 = load ptr, ptr %6, align 8, !tbaa !21
  %19 = getelementptr inbounds nuw %struct.h5tools_context_t, ptr %18, i32 0, i32 11
  %20 = load i32, ptr %19, align 4, !tbaa !44
  store i32 %20, ptr %8, align 4, !tbaa !15
  br label %21

21:                                               ; preds = %17, %13
  store i32 0, ptr %7, align 4, !tbaa !15
  br label %22

22:                                               ; preds = %40, %21
  %23 = load i32, ptr %7, align 4, !tbaa !15
  %24 = load i32, ptr %8, align 4, !tbaa !15
  %25 = icmp ult i32 %23, %24
  br i1 %25, label %26, label %43

26:                                               ; preds = %22
  %27 = load ptr, ptr %4, align 8, !tbaa !3
  %28 = load ptr, ptr %5, align 8, !tbaa !19
  %29 = getelementptr inbounds nuw %struct.h5tool_format_t, ptr %28, i32 0, i32 49
  %30 = load ptr, ptr %29, align 8, !tbaa !38
  %31 = icmp ne ptr %30, null
  br i1 %31, label %32, label %36

32:                                               ; preds = %26
  %33 = load ptr, ptr %5, align 8, !tbaa !19
  %34 = getelementptr inbounds nuw %struct.h5tool_format_t, ptr %33, i32 0, i32 49
  %35 = load ptr, ptr %34, align 8, !tbaa !38
  br label %37

36:                                               ; preds = %26
  br label %37

37:                                               ; preds = %36, %32
  %38 = phi ptr [ %35, %32 ], [ @.str.17, %36 ]
  %39 = call ptr (ptr, ptr, ...) @h5tools_str_append(ptr noundef %27, ptr noundef @.str, ptr noundef %38)
  br label %40

40:                                               ; preds = %37
  %41 = load i32, ptr %7, align 4, !tbaa !15
  %42 = add i32 %41, 1
  store i32 %42, ptr %7, align 4, !tbaa !15
  br label %22, !llvm.loop !45

43:                                               ; preds = %22
  call void @llvm.lifetime.end.p0(i64 4, ptr %8) #12
  call void @llvm.lifetime.end.p0(i64 4, ptr %7) #12
  ret void
}