; Function Attrs: nounwind uwtable
define void @h5tools_str_indent(ptr noundef captures(none) %0, ptr noundef readonly captures(none) %1, ptr noundef readonly captures(none) %2) local_unnamed_addr #4 {
  %4 = getelementptr inbounds nuw i8, ptr %2, i64 568
  %5 = load i32, ptr %4, align 8, !tbaa !30
  %.not = icmp eq i32 %5, 0
  br i1 %.not, label %6, label %.lr.ph

6:                                                ; preds = %3
  %7 = getelementptr inbounds nuw i8, ptr %2, i64 572
  %8 = load i32, ptr %7, align 4, !tbaa !31
  %.not13 = icmp eq i32 %8, 0
  br i1 %.not13, label %._crit_edge, label %.lr.ph

.lr.ph:                                           ; preds = %3, %6
  %.016 = phi i32 [ %8, %6 ], [ %5, %3 ]
  %9 = getelementptr inbounds nuw i8, ptr %1, i64 384
  br label %10

10:                                               ; preds = %.lr.ph, %10
  %.0812 = phi i32 [ 0, %.lr.ph ], [ %13, %10 ]
  %11 = load ptr, ptr %9, align 8, !tbaa !28
  %.not11 = icmp eq ptr %11, null
  %spec.select = select i1 %.not11, ptr @.str.17, ptr %11
  %12 = tail call ptr (ptr, ptr, ...) @h5tools_str_append(ptr noundef %0, ptr noundef nonnull @.str, ptr noundef nonnull %spec.select)
  %13 = add nuw i32 %.0812, 1
  %exitcond.not = icmp eq i32 %13, %.016
  br i1 %exitcond.not, label %._crit_edge, label %10, !llvm.loop !32

._crit_edge:                                      ; preds = %10, %6
  ret void
}